target datalayout = "e-m:e-p270:32:32-p271:32:32-p272:64:64-i64:64-i128:128-f80:128-n8:16:32:64-S128"
target triple = "x86_64-pc-linux-gnu"

%struct.satset_t = type { i32, i32, [0 x i32] }
%struct.Vec_Int_t_ = type { i32, i32, ptr }
%struct.Vec_Set_t_ = type { i32, i32, i32, i32, i32, i32, ptr }

; Function Attrs: inlinehint nounwind uwtable
define internal i32 @Vec_SetHandShift(ptr noundef %0, i32 noundef %1) #1 {
  %3 = alloca ptr, align 8
  %4 = alloca i32, align 4
  store ptr %0, ptr %3, align 8, !tbaa !3
  store i32 %1, ptr %4, align 4, !tbaa !8
  %5 = load i32, ptr %4, align 4, !tbaa !8
  %6 = load ptr, ptr %3, align 8, !tbaa !3
  %7 = getelementptr inbounds nuw %struct.Vec_Set_t_, ptr %6, i32 0, i32 1
  %8 = load i32, ptr %7, align 4, !tbaa !68
  %9 = and i32 %5, %8
  ret i32 %9
}

; Function Attrs: inlinehint nounwind uwtable
define internal i32 @Vec_SetHandPage(ptr noundef %0, i32 noundef %1) #1 {
  %3 = alloca ptr, align 8
  %4 = alloca i32, align 4
  store ptr %0, ptr %3, align 8, !tbaa !3
  store i32 %1, ptr %4, align 4, !tbaa !8
  %5 = load i32, ptr %4, align 4, !tbaa !8
  %6 = load ptr, ptr %3, align 8, !tbaa !3
  %7 = getelementptr inbounds nuw %struct.Vec_Set_t_, ptr %6, i32 0, i32 0
  %8 = load i32, ptr %7, align 8, !tbaa !55
  %9 = ashr i32 %5, %8
  ret i32 %9
}

; Function Attrs: inlinehint nounwind uwtable
define internal ptr @Vec_SetEntry(ptr noundef %0, i32 noundef %1) #1 {
  %3 = alloca ptr, align 8
  %4 = alloca i32, align 4
  store ptr %0, ptr %3, align 8, !tbaa !3
  store i32 %1, ptr %4, align 4, !tbaa !8
  %5 = load ptr, ptr %3, align 8, !tbaa !3
  %6 = getelementptr inbounds nuw %struct.Vec_Set_t_, ptr %5, i32 0, i32 6
  %7 = load ptr, ptr %6, align 8, !tbaa !36
  %8 = load ptr, ptr %3, align 8, !tbaa !3
  %9 = load i32, ptr %4, align 4, !tbaa !8
  %10 = call i32 @Vec_SetHandPage(ptr noundef %8, i32 noundef %9)
  %11 = sext i32 %10 to i64
  %12 = getelementptr inbounds ptr, ptr %7, i64 %11
  %13 = load ptr, ptr %12, align 8, !tbaa !37
  %14 = load ptr, ptr %3, align 8, !tbaa !3
  %15 = load i32, ptr %4, align 4, !tbaa !8
  %16 = call i32 @Vec_SetHandShift(ptr noundef %14, i32 noundef %15)
  %17 = sext i32 %16 to i64
  %18 = getelementptr inbounds i64, ptr %13, i64 %17
  ret ptr %18
}

; Function Attrs: inlinehint nounwind uwtable
define internal ptr @Proof_NodeRead(ptr noundef %0, i32 noundef %1) #1 {
  %3 = alloca ptr, align 8
  %4 = alloca i32, align 4
  store ptr %0, ptr %3, align 8, !tbaa !3
  store i32 %1, ptr %4, align 4, !tbaa !8
  %5 = load ptr, ptr %3, align 8, !tbaa !3
  %6 = load i32, ptr %4, align 4, !tbaa !8
  %7 = call ptr @Vec_SetEntry(ptr noundef %5, i32 noundef %6)
  ret ptr %7
}

; Function Attrs: inlinehint nounwind uwtable
define internal i32 @Vec_IntEntry(ptr noundef %0, i32 noundef %1) #1 {
  %3 = alloca ptr, align 8
  %4 = alloca i32, align 4
  store ptr %0, ptr %3, align 8, !tbaa !10
  store i32 %1, ptr %4, align 4, !tbaa !8
  %5 = load ptr, ptr %3, align 8, !tbaa !10
  %6 = getelementptr inbounds nuw %struct.Vec_Int_t_, ptr %5, i32 0, i32 2
  %7 = load ptr, ptr %6, align 8, !tbaa !21
  %8 = load i32, ptr %4, align 4, !tbaa !8
  %9 = sext i32 %8 to i64
  %10 = getelementptr inbounds i32, ptr %7, i64 %9
  %11 = load i32, ptr %10, align 4, !tbaa !8
  ret i32 %11
}

; Function Attrs: inlinehint nounwind uwtable
define internal i32 @Vec_IntSize(ptr noundef %0) #1 {
  %2 = alloca ptr, align 8
  store ptr %0, ptr %2, align 8, !tbaa !10
  %3 = load ptr, ptr %2, align 8, !tbaa !10
  %4 = getelementptr inbounds nuw %struct.Vec_Int_t_, ptr %3, i32 0, i32 1
  %5 = load i32, ptr %4, align 4, !tbaa !18
  ret i32 %5
}

; Function Attrs: nounwind uwtable
define void @Proof_CleanCollected(ptr noundef %0, ptr noundef %1) #0 {
  %3 = alloca ptr, align 8
  %4 = alloca ptr, align 8
  %5 = alloca ptr, align 8
  %6 = alloca i32, align 4
  store ptr %0, ptr %3, align 8, !tbaa !3
  store ptr %1, ptr %4, align 8, !tbaa !10
  call void @llvm.lifetime.start.p0(i64 8, ptr %5) #11
  call void @llvm.lifetime.start.p0(i64 4, ptr %6) #11
  store i32 0, ptr %6, align 4, !tbaa !8
  br label %7

7:                                                ; preds = %24, %2
  %8 = load i32, ptr %6, align 4, !tbaa !8
  %9 = load ptr, ptr %4, align 8, !tbaa !10
  %10 = call i32 @Vec_IntSize(ptr noundef %9)
  %11 = icmp slt i32 %8, %10
  br i1 %11, label %12, label %19

12:                                               ; preds = %7
  %13 = load ptr, ptr %3, align 8, !tbaa !3
  %14 = load ptr, ptr %4, align 8, !tbaa !10
  %15 = load i32, ptr %6, align 4, !tbaa !8
  %16 = call i32 @Vec_IntEntry(ptr noundef %14, i32 noundef %15)
  %17 = call ptr @Proof_NodeRead(ptr noundef %13, i32 noundef %16)
  store ptr %17, ptr %5, align 8, !tbaa !12
  %18 = icmp ne ptr %17, null
  br label %19

19:                                               ; preds = %12, %7
  %20 = phi i1 [ false, %7 ], [ %18, %12 ]
  br i1 %20, label %21, label %27

21:                                               ; preds = %19
  %22 = load ptr, ptr %5, align 8, !tbaa !12
  %23 = getelementptr inbounds nuw %struct.satset_t, ptr %22, i32 0, i32 1
  store i32 0, ptr %23, align 4, !tbaa !14
  br label %24

24:                                               ; preds = %21
  %25 = load i32, ptr %6, align 4, !tbaa !8
  %26 = add nsw i32 %25, 1
  store i32 %26, ptr %6, align 4, !tbaa !8
  br label %7, !llvm.loop !16

27:                                               ; preds = %19
  call void @llvm.lifetime.end.p0(i64 4, ptr %6) #11
  call void @llvm.lifetime.end.p0(i64 8, ptr %5) #11
  ret void
}