; Function Attrs: nofree norecurse nosync nounwind memory(readwrite, inaccessiblemem: none) uwtable
define void @Proof_CleanCollected(ptr noundef readonly captures(none) %0, ptr noundef readonly captures(none) %1) local_unnamed_addr #1 {
  %3 = getelementptr i8, ptr %1, i64 4
  %.val = load i32, ptr %3, align 4, !tbaa !14
  %4 = icmp sgt i32 %.val, 0
  br i1 %4, label %.lr.ph, label %.critedge

.lr.ph:                                           ; preds = %2
  %5 = getelementptr i8, ptr %1, i64 8
  %.val7 = load ptr, ptr %5, align 8, !tbaa !17
  %6 = getelementptr inbounds nuw i8, ptr %0, i64 24
  %7 = load ptr, ptr %6, align 8, !tbaa !3
  %.val.i.i = load i32, ptr %0, align 8, !tbaa !10
  %8 = getelementptr i8, ptr %0, i64 4
  %wide.trip.count = zext nneg i32 %.val to i64
  br label %9

9:                                                ; preds = %.lr.ph, %16
  %indvars.iv = phi i64 [ 0, %.lr.ph ], [ %indvars.iv.next, %16 ]
  %10 = getelementptr inbounds nuw i32, ptr %.val7, i64 %indvars.iv
  %11 = load i32, ptr %10, align 4, !tbaa !18
  %12 = ashr i32 %11, %.val.i.i
  %13 = sext i32 %12 to i64
  %14 = getelementptr inbounds ptr, ptr %7, i64 %13
  %15 = load ptr, ptr %14, align 8, !tbaa !11
  %.not = icmp eq ptr %15, null
  br i1 %.not, label %.critedge, label %16

16:                                               ; preds = %9
  %.val4.i.i = load i32, ptr %8, align 4, !tbaa !13
  %17 = and i32 %.val4.i.i, %11
  %18 = sext i32 %17 to i64
  %19 = getelementptr inbounds i64, ptr %15, i64 %18
  %20 = getelementptr inbounds nuw i8, ptr %19, i64 4
  store i32 0, ptr %20, align 4, !tbaa !19
  %indvars.iv.next = add nuw nsw i64 %indvars.iv, 1
  %exitcond.not = icmp eq i64 %indvars.iv.next, %wide.trip.count
  br i1 %exitcond.not, label %.critedge, label %9, !llvm.loop !21

.critedge:                                        ; preds = %9, %16, %2
  ret void
}